target datalayout = "e-m:e-p270:32:32-p271:32:32-p272:64:64-i64:64-i128:128-f80:128-n8:16:32:64-S128"
target triple = "x86_64-pc-linux-gnu"

%"class.llvm::APInt" = type <{ %union.anon.342, i32, [4 x i8] }>
%union.anon.342 = type { i64 }
%"struct.(anonymous namespace)::ChainElem" = type { ptr, %"class.llvm::APInt" }
%"struct.__gnu_cxx::__ops::_Iter_comp_iter" = type { i8 }
%"struct.__gnu_cxx::__ops::_Iter_comp_val" = type { i8 }

; Function Attrs: mustprogress nounwind uwtable
define linkonce_odr hidden noundef zeroext i1 @_ZNK4llvm5APInt12needsCleanupEv(ptr noundef nonnull align 8 dereferenceable(12) %0) #1 comdat align 2 {
  %2 = alloca ptr, align 8
  store ptr %0, ptr %2, align 8
  %3 = load ptr, ptr %2, align 8
  %4 = call noundef zeroext i1 @_ZNK4llvm5APInt12isSingleWordEv(ptr noundef nonnull align 8 dereferenceable(12) %3)
  %5 = xor i1 %4, true
  ret i1 %5
}

; Function Attrs: mustprogress nounwind uwtable
define linkonce_odr hidden noundef zeroext i1 @_ZNK4llvm5APInt12isSingleWordEv(ptr noundef nonnull align 8 dereferenceable(12) %0) #1 comdat align 2 {
  %2 = alloca ptr, align 8
  store ptr %0, ptr %2, align 8
  %3 = load ptr, ptr %2, align 8
  %4 = getelementptr inbounds nuw %"class.llvm::APInt", ptr %3, i32 0, i32 1
  %5 = load i32, ptr %4, align 8
  %6 = icmp ule i32 %5, 64
  ret i1 %6
}

; Function Attrs: mustprogress nounwind uwtable
define linkonce_odr hidden void @_ZN4llvm5APIntD2Ev(ptr noundef nonnull align 8 dereferenceable(12) %0) unnamed_addr #1 comdat align 2 {
  %2 = alloca ptr, align 8
  store ptr %0, ptr %2, align 8
  %3 = load ptr, ptr %2, align 8
  %4 = call noundef zeroext i1 @_ZNK4llvm5APInt12needsCleanupEv(ptr noundef nonnull align 8 dereferenceable(12) %3)
  br i1 %4, label %5, label %11

5:                                                ; preds = %1
  %6 = getelementptr inbounds nuw %"class.llvm::APInt", ptr %3, i32 0, i32 0
  %7 = load ptr, ptr %6, align 8
  %8 = icmp eq ptr %7, null
  br i1 %8, label %10, label %9

9:                                                ; preds = %5
  call void @_ZdaPv(ptr noundef %7) #17
  br label %10

10:                                               ; preds = %9, %5
  br label %11

11:                                               ; preds = %10, %1
  ret void
}

; Function Attrs: mustprogress nounwind uwtable
define internal noundef zeroext i1 @"_ZN9__gnu_cxx5__ops14_Iter_comp_valIZN12_GLOBAL__N_118sortChainInBBOrderERN4llvm11SmallVectorINS2_9ChainElemELj1EEEE3$_0EclIPS5_S5_EEbT_RT0_"(ptr noundef nonnull align 1 dereferenceable(1) %0, ptr noundef %1, ptr noundef nonnull align 8 dereferenceable(24) %2) #1 align 2 {
  %4 = alloca ptr, align 8
  %5 = alloca ptr, align 8
  %6 = alloca ptr, align 8
  store ptr %0, ptr %4, align 8
  store ptr %1, ptr %5, align 8
  store ptr %2, ptr %6, align 8
  %7 = load ptr, ptr %4, align 8
  %8 = load ptr, ptr %5, align 8
  %9 = load ptr, ptr %6, align 8
  %10 = call noundef zeroext i1 @"_ZZN12_GLOBAL__N_118sortChainInBBOrderERN4llvm11SmallVectorINS_9ChainElemELj1EEEENK3$_0clIS2_S2_EEDaRT_RT0_"(ptr noundef nonnull align 1 dereferenceable(1) %7, ptr noundef nonnull align 8 dereferenceable(24) %8, ptr noundef nonnull align 8 dereferenceable(24) %9)
  ret i1 %10
}

; Function Attrs: mustprogress nounwind uwtable
define linkonce_odr hidden void @_ZN4llvm5APIntC2EOS0_(ptr noundef nonnull align 8 dereferenceable(12) %0, ptr noundef nonnull align 8 dereferenceable(12) %1) unnamed_addr #1 comdat align 2 {
  %3 = alloca ptr, align 8
  %4 = alloca ptr, align 8
  store ptr %0, ptr %3, align 8
  store ptr %1, ptr %4, align 8
  %5 = load ptr, ptr %3, align 8
  %6 = getelementptr inbounds nuw %"class.llvm::APInt", ptr %5, i32 0, i32 1
  %7 = load ptr, ptr %4, align 8
  %8 = getelementptr inbounds nuw %"class.llvm::APInt", ptr %7, i32 0, i32 1
  %9 = load i32, ptr %8, align 8
  store i32 %9, ptr %6, align 8
  %10 = getelementptr inbounds nuw %"class.llvm::APInt", ptr %5, i32 0, i32 0
  %11 = load ptr, ptr %4, align 8
  %12 = getelementptr inbounds nuw %"class.llvm::APInt", ptr %11, i32 0, i32 0
  call void @llvm.memcpy.p0.p0.i64(ptr align 8 %10, ptr align 8 %12, i64 8, i1 false)
  %13 = load ptr, ptr %4, align 8
  %14 = getelementptr inbounds nuw %"class.llvm::APInt", ptr %13, i32 0, i32 1
  store i32 0, ptr %14, align 8
  ret void
}

; Function Attrs: mustprogress nounwind uwtable
define linkonce_odr hidden noundef nonnull align 8 dereferenceable(12) ptr @_ZN4llvm5APIntaSEOS0_(ptr noundef nonnull align 8 dereferenceable(12) %0, ptr noundef nonnull align 8 dereferenceable(12) %1) #1 comdat align 2 {
  %3 = alloca ptr, align 8
  %4 = alloca ptr, align 8
  store ptr %0, ptr %3, align 8
  store ptr %1, ptr %4, align 8
  %5 = load ptr, ptr %3, align 8
  %6 = call noundef zeroext i1 @_ZNK4llvm5APInt12isSingleWordEv(ptr noundef nonnull align 8 dereferenceable(12) %5)
  br i1 %6, label %13, label %7

7:                                                ; preds = %2
  %8 = getelementptr inbounds nuw %"class.llvm::APInt", ptr %5, i32 0, i32 0
  %9 = load ptr, ptr %8, align 8
  %10 = icmp eq ptr %9, null
  br i1 %10, label %12, label %11

11:                                               ; preds = %7
  call void @_ZdaPv(ptr noundef %9) #17
  br label %12

12:                                               ; preds = %11, %7
  br label %13

13:                                               ; preds = %12, %2
  %14 = getelementptr inbounds nuw %"class.llvm::APInt", ptr %5, i32 0, i32 0
  %15 = load ptr, ptr %4, align 8
  %16 = getelementptr inbounds nuw %"class.llvm::APInt", ptr %15, i32 0, i32 0
  call void @llvm.memcpy.p0.p0.i64(ptr align 8 %14, ptr align 8 %16, i64 8, i1 false)
  %17 = load ptr, ptr %4, align 8
  %18 = getelementptr inbounds nuw %"class.llvm::APInt", ptr %17, i32 0, i32 1
  %19 = load i32, ptr %18, align 8
  %20 = getelementptr inbounds nuw %"class.llvm::APInt", ptr %5, i32 0, i32 1
  store i32 %19, ptr %20, align 8
  %21 = load ptr, ptr %4, align 8
  %22 = getelementptr inbounds nuw %"class.llvm::APInt", ptr %21, i32 0, i32 1
  store i32 0, ptr %22, align 8
  ret ptr %5
}

; Function Attrs: mustprogress nounwind uwtable
define internal noundef zeroext i1 @"_ZZN12_GLOBAL__N_118sortChainInBBOrderERN4llvm11SmallVectorINS_9ChainElemELj1EEEENK3$_0clIS2_S2_EEDaRT_RT0_"(ptr noundef nonnull align 1 dereferenceable(1) %0, ptr noundef nonnull align 8 dereferenceable(24) %1, ptr noundef nonnull align 8 dereferenceable(24) %2) #1 align 2 {
  %4 = alloca ptr, align 8
  %5 = alloca ptr, align 8
  %6 = alloca ptr, align 8
  store ptr %0, ptr %4, align 8
  store ptr %1, ptr %5, align 8
  store ptr %2, ptr %6, align 8
  %7 = load ptr, ptr %5, align 8
  %8 = getelementptr inbounds nuw %"struct.(anonymous namespace)::ChainElem", ptr %7, i32 0, i32 0
  %9 = load ptr, ptr %8, align 8
  %10 = load ptr, ptr %6, align 8
  %11 = getelementptr inbounds nuw %"struct.(anonymous namespace)::ChainElem", ptr %10, i32 0, i32 0
  %12 = load ptr, ptr %11, align 8
  %13 = call noundef zeroext i1 @_ZNK4llvm11Instruction11comesBeforeEPKS0_(ptr noundef nonnull align 8 dereferenceable(72) %9, ptr noundef %12)
  ret i1 %13
}

; Function Attrs: mustprogress nounwind uwtable
define internal void @_ZN12_GLOBAL__N_19ChainElemD2Ev(ptr noundef nonnull align 8 dereferenceable(24) %0) unnamed_addr #1 align 2 {
  %2 = alloca ptr, align 8
  store ptr %0, ptr %2, align 8
  %3 = load ptr, ptr %2, align 8
  %4 = getelementptr inbounds nuw %"struct.(anonymous namespace)::ChainElem", ptr %3, i32 0, i32 1
  call void @_ZN4llvm5APIntD2Ev(ptr noundef nonnull align 8 dereferenceable(12) %4) #15
  ret void
}

; Function Attrs: mustprogress nounwind uwtable
define internal void @"_ZSt11__push_heapIPN12_GLOBAL__N_19ChainElemElS1_N9__gnu_cxx5__ops14_Iter_comp_valIZNS0_18sortChainInBBOrderERN4llvm11SmallVectorIS1_Lj1EEEE3$_0EEEvT_T0_SD_T1_RT2_"(ptr noundef %0, i64 noundef %1, i64 noundef %2, ptr noundef %3, ptr noundef nonnull align 1 dereferenceable(1) %4) #1 {
  %6 = alloca ptr, align 8
  %7 = alloca i64, align 8
  %8 = alloca i64, align 8
  %9 = alloca ptr, align 8
  %10 = alloca ptr, align 8
  %11 = alloca i64, align 8
  store ptr %0, ptr %6, align 8
  store i64 %1, ptr %7, align 8
  store i64 %2, ptr %8, align 8
  store ptr %3, ptr %9, align 8
  store ptr %4, ptr %10, align 8
  %12 = load i64, ptr %7, align 8
  %13 = sub nsw i64 %12, 1
  %14 = sdiv i64 %13, 2
  store i64 %14, ptr %11, align 8
  br label %15

15:                                               ; preds = %27, %5
  %16 = load i64, ptr %7, align 8
  %17 = load i64, ptr %8, align 8
  %18 = icmp sgt i64 %16, %17
  br i1 %18, label %19, label %25

19:                                               ; preds = %15
  %20 = load ptr, ptr %10, align 8
  %21 = load ptr, ptr %6, align 8
  %22 = load i64, ptr %11, align 8
  %23 = getelementptr inbounds %"struct.(anonymous namespace)::ChainElem", ptr %21, i64 %22
  %24 = call noundef zeroext i1 @"_ZN9__gnu_cxx5__ops14_Iter_comp_valIZN12_GLOBAL__N_118sortChainInBBOrderERN4llvm11SmallVectorINS2_9ChainElemELj1EEEE3$_0EclIPS5_S5_EEbT_RT0_"(ptr noundef nonnull align 1 dereferenceable(1) %20, ptr noundef %23, ptr noundef nonnull align 8 dereferenceable(24) %3)
  br label %25

25:                                               ; preds = %19, %15
  %26 = phi i1 [ false, %15 ], [ %24, %19 ]
  br i1 %26, label %27, label %39

27:                                               ; preds = %25
  %28 = load ptr, ptr %6, align 8
  %29 = load i64, ptr %11, align 8
  %30 = getelementptr inbounds %"struct.(anonymous namespace)::ChainElem", ptr %28, i64 %29
  %31 = load ptr, ptr %6, align 8
  %32 = load i64, ptr %7, align 8
  %33 = getelementptr inbounds %"struct.(anonymous namespace)::ChainElem", ptr %31, i64 %32
  %34 = call noundef nonnull align 8 dereferenceable(24) ptr @_ZN12_GLOBAL__N_19ChainElemaSEOS0_(ptr noundef nonnull align 8 dereferenceable(24) %33, ptr noundef nonnull align 8 dereferenceable(24) %30)
  %35 = load i64, ptr %11, align 8
  store i64 %35, ptr %7, align 8
  %36 = load i64, ptr %7, align 8
  %37 = sub nsw i64 %36, 1
  %38 = sdiv i64 %37, 2
  store i64 %38, ptr %11, align 8
  br label %15, !llvm.loop !54

39:                                               ; preds = %25
  %40 = load ptr, ptr %6, align 8
  %41 = load i64, ptr %7, align 8
  %42 = getelementptr inbounds %"struct.(anonymous namespace)::ChainElem", ptr %40, i64 %41
  %43 = call noundef nonnull align 8 dereferenceable(24) ptr @_ZN12_GLOBAL__N_19ChainElemaSEOS0_(ptr noundef nonnull align 8 dereferenceable(24) %42, ptr noundef nonnull align 8 dereferenceable(24) %3)
  ret void
}

; Function Attrs: mustprogress nounwind uwtable
define internal void @_ZN12_GLOBAL__N_19ChainElemC2EOS0_(ptr noundef nonnull align 8 dereferenceable(24) %0, ptr noundef nonnull align 8 dereferenceable(24) %1) unnamed_addr #1 align 2 {
  %3 = alloca ptr, align 8
  %4 = alloca ptr, align 8
  store ptr %0, ptr %3, align 8
  store ptr %1, ptr %4, align 8
  %5 = load ptr, ptr %3, align 8
  %6 = getelementptr inbounds nuw %"struct.(anonymous namespace)::ChainElem", ptr %5, i32 0, i32 0
  %7 = load ptr, ptr %4, align 8
  %8 = getelementptr inbounds nuw %"struct.(anonymous namespace)::ChainElem", ptr %7, i32 0, i32 0
  %9 = load ptr, ptr %8, align 8
  store ptr %9, ptr %6, align 8
  %10 = getelementptr inbounds nuw %"struct.(anonymous namespace)::ChainElem", ptr %5, i32 0, i32 1
  %11 = load ptr, ptr %4, align 8
  %12 = getelementptr inbounds nuw %"struct.(anonymous namespace)::ChainElem", ptr %11, i32 0, i32 1
  call void @_ZN4llvm5APIntC2EOS0_(ptr noundef nonnull align 8 dereferenceable(12) %10, ptr noundef nonnull align 8 dereferenceable(12) %12)
  ret void
}

; Function Attrs: mustprogress nounwind uwtable
define internal void @"_ZN9__gnu_cxx5__ops14_Iter_comp_valIZN12_GLOBAL__N_118sortChainInBBOrderERN4llvm11SmallVectorINS2_9ChainElemELj1EEEE3$_0EC2EONS0_15_Iter_comp_iterIS8_EE"(ptr noundef nonnull align 1 dereferenceable(1) %0, ptr noundef nonnull align 1 dereferenceable(1) %1) unnamed_addr #1 align 2 {
  %3 = alloca ptr, align 8
  %4 = alloca ptr, align 8
  store ptr %0, ptr %3, align 8
  store ptr %1, ptr %4, align 8
  ret void
}

; Function Attrs: mustprogress nounwind uwtable
define internal noundef nonnull align 8 dereferenceable(24) ptr @_ZN12_GLOBAL__N_19ChainElemaSEOS0_(ptr noundef nonnull align 8 dereferenceable(24) %0, ptr noundef nonnull align 8 dereferenceable(24) %1) #1 align 2 {
  %3 = alloca ptr, align 8
  %4 = alloca ptr, align 8
  store ptr %0, ptr %3, align 8
  store ptr %1, ptr %4, align 8
  %5 = load ptr, ptr %3, align 8
  %6 = load ptr, ptr %4, align 8
  %7 = getelementptr inbounds nuw %"struct.(anonymous namespace)::ChainElem", ptr %6, i32 0, i32 0
  %8 = load ptr, ptr %7, align 8
  %9 = getelementptr inbounds nuw %"struct.(anonymous namespace)::ChainElem", ptr %5, i32 0, i32 0
  store ptr %8, ptr %9, align 8
  %10 = getelementptr inbounds nuw %"struct.(anonymous namespace)::ChainElem", ptr %5, i32 0, i32 1
  %11 = load ptr, ptr %4, align 8
  %12 = getelementptr inbounds nuw %"struct.(anonymous namespace)::ChainElem", ptr %11, i32 0, i32 1
  %13 = call noundef nonnull align 8 dereferenceable(12) ptr @_ZN4llvm5APIntaSEOS0_(ptr noundef nonnull align 8 dereferenceable(12) %10, ptr noundef nonnull align 8 dereferenceable(12) %12)
  ret ptr %5
}

; Function Attrs: mustprogress nounwind uwtable
define internal noundef zeroext i1 @"_ZN9__gnu_cxx5__ops15_Iter_comp_iterIZN12_GLOBAL__N_118sortChainInBBOrderERN4llvm11SmallVectorINS2_9ChainElemELj1EEEE3$_0EclIPS5_SB_EEbT_T0_"(ptr noundef nonnull align 1 dereferenceable(1) %0, ptr noundef %1, ptr noundef %2) #1 align 2 {
  %4 = alloca ptr, align 8
  %5 = alloca ptr, align 8
  %6 = alloca ptr, align 8
  store ptr %0, ptr %4, align 8
  store ptr %1, ptr %5, align 8
  store ptr %2, ptr %6, align 8
  %7 = load ptr, ptr %4, align 8
  %8 = load ptr, ptr %5, align 8
  %9 = load ptr, ptr %6, align 8
  %10 = call noundef zeroext i1 @"_ZZN12_GLOBAL__N_118sortChainInBBOrderERN4llvm11SmallVectorINS_9ChainElemELj1EEEENK3$_0clIS2_S2_EEDaRT_RT0_"(ptr noundef nonnull align 1 dereferenceable(1) %7, ptr noundef nonnull align 8 dereferenceable(24) %8, ptr noundef nonnull align 8 dereferenceable(24) %9)
  ret i1 %10
}

; Function Attrs: mustprogress nounwind uwtable
define internal void @"_ZSt13__adjust_heapIPN12_GLOBAL__N_19ChainElemElS1_N9__gnu_cxx5__ops15_Iter_comp_iterIZNS0_18sortChainInBBOrderERN4llvm11SmallVectorIS1_Lj1EEEE3$_0EEEvT_T0_SD_T1_T2_"(ptr noundef %0, i64 noundef %1, i64 noundef %2, ptr noundef %3) #1 {
  %5 = alloca %"struct.__gnu_cxx::__ops::_Iter_comp_iter", align 1
  %6 = alloca ptr, align 8
  %7 = alloca i64, align 8
  %8 = alloca i64, align 8
  %9 = alloca ptr, align 8
  %10 = alloca i64, align 8
  %11 = alloca i64, align 8
  %12 = alloca %"struct.__gnu_cxx::__ops::_Iter_comp_val", align 1
  %13 = alloca %"struct.(anonymous namespace)::ChainElem", align 8
  store ptr %0, ptr %6, align 8
  store i64 %1, ptr %7, align 8
  store i64 %2, ptr %8, align 8
  store ptr %3, ptr %9, align 8
  %14 = load i64, ptr %7, align 8
  store i64 %14, ptr %10, align 8
  %15 = load i64, ptr %7, align 8
  store i64 %15, ptr %11, align 8
  br label %16

16:                                               ; preds = %37, %4
  %17 = load i64, ptr %11, align 8
  %18 = load i64, ptr %8, align 8
  %19 = sub nsw i64 %18, 1
  %20 = sdiv i64 %19, 2
  %21 = icmp slt i64 %17, %20
  br i1 %21, label %22, label %46

22:                                               ; preds = %16
  %23 = load i64, ptr %11, align 8
  %24 = add nsw i64 %23, 1
  %25 = mul nsw i64 2, %24
  store i64 %25, ptr %11, align 8
  %26 = load ptr, ptr %6, align 8
  %27 = load i64, ptr %11, align 8
  %28 = getelementptr inbounds %"struct.(anonymous namespace)::ChainElem", ptr %26, i64 %27
  %29 = load ptr, ptr %6, align 8
  %30 = load i64, ptr %11, align 8
  %31 = sub nsw i64 %30, 1
  %32 = getelementptr inbounds %"struct.(anonymous namespace)::ChainElem", ptr %29, i64 %31
  %33 = call noundef zeroext i1 @"_ZN9__gnu_cxx5__ops15_Iter_comp_iterIZN12_GLOBAL__N_118sortChainInBBOrderERN4llvm11SmallVectorINS2_9ChainElemELj1EEEE3$_0EclIPS5_SB_EEbT_T0_"(ptr noundef nonnull align 1 dereferenceable(1) %5, ptr noundef %28, ptr noundef %32)
  br i1 %33, label %34, label %37

34:                                               ; preds = %22
  %35 = load i64, ptr %11, align 8
  %36 = add nsw i64 %35, -1
  store i64 %36, ptr %11, align 8
  br label %37

37:                                               ; preds = %34, %22
  %38 = load ptr, ptr %6, align 8
  %39 = load i64, ptr %11, align 8
  %40 = getelementptr inbounds %"struct.(anonymous namespace)::ChainElem", ptr %38, i64 %39
  %41 = load ptr, ptr %6, align 8
  %42 = load i64, ptr %7, align 8
  %43 = getelementptr inbounds %"struct.(anonymous namespace)::ChainElem", ptr %41, i64 %42
  %44 = call noundef nonnull align 8 dereferenceable(24) ptr @_ZN12_GLOBAL__N_19ChainElemaSEOS0_(ptr noundef nonnull align 8 dereferenceable(24) %43, ptr noundef nonnull align 8 dereferenceable(24) %40)
  %45 = load i64, ptr %11, align 8
  store i64 %45, ptr %7, align 8
  br label %16, !llvm.loop !53

46:                                               ; preds = %16
  %47 = load i64, ptr %8, align 8
  %48 = and i64 %47, 1
  %49 = icmp eq i64 %48, 0
  br i1 %49, label %50, label %70

50:                                               ; preds = %46
  %51 = load i64, ptr %11, align 8
  %52 = load i64, ptr %8, align 8
  %53 = sub nsw i64 %52, 2
  %54 = sdiv i64 %53, 2
  %55 = icmp eq i64 %51, %54
  br i1 %55, label %56, label %70

56:                                               ; preds = %50
  %57 = load i64, ptr %11, align 8
  %58 = add nsw i64 %57, 1
  %59 = mul nsw i64 2, %58
  store i64 %59, ptr %11, align 8
  %60 = load ptr, ptr %6, align 8
  %61 = load i64, ptr %11, align 8
  %62 = sub nsw i64 %61, 1
  %63 = getelementptr inbounds %"struct.(anonymous namespace)::ChainElem", ptr %60, i64 %62
  %64 = load ptr, ptr %6, align 8
  %65 = load i64, ptr %7, align 8
  %66 = getelementptr inbounds %"struct.(anonymous namespace)::ChainElem", ptr %64, i64 %65
  %67 = call noundef nonnull align 8 dereferenceable(24) ptr @_ZN12_GLOBAL__N_19ChainElemaSEOS0_(ptr noundef nonnull align 8 dereferenceable(24) %66, ptr noundef nonnull align 8 dereferenceable(24) %63)
  %68 = load i64, ptr %11, align 8
  %69 = sub nsw i64 %68, 1
  store i64 %69, ptr %7, align 8
  br label %70

70:                                               ; preds = %56, %50, %46
  call void @"_ZN9__gnu_cxx5__ops14_Iter_comp_valIZN12_GLOBAL__N_118sortChainInBBOrderERN4llvm11SmallVectorINS2_9ChainElemELj1EEEE3$_0EC2EONS0_15_Iter_comp_iterIS8_EE"(ptr noundef nonnull align 1 dereferenceable(1) %12, ptr noundef nonnull align 1 dereferenceable(1) %5)
  %71 = load ptr, ptr %6, align 8
  %72 = load i64, ptr %7, align 8
  %73 = load i64, ptr %10, align 8
  call void @_ZN12_GLOBAL__N_19ChainElemC2EOS0_(ptr noundef nonnull align 8 dereferenceable(24) %13, ptr noundef nonnull align 8 dereferenceable(24) %3)
  call void @"_ZSt11__push_heapIPN12_GLOBAL__N_19ChainElemElS1_N9__gnu_cxx5__ops14_Iter_comp_valIZNS0_18sortChainInBBOrderERN4llvm11SmallVectorIS1_Lj1EEEE3$_0EEEvT_T0_SD_T1_RT2_"(ptr noundef %71, i64 noundef %72, i64 noundef %73, ptr noundef %13, ptr noundef nonnull align 1 dereferenceable(1) %12)
  call void @_ZN12_GLOBAL__N_19ChainElemD2Ev(ptr noundef nonnull align 8 dereferenceable(24) %13) #15
  ret void
}