; Function Attrs: mustprogress nounwind uwtable
define internal fastcc void @"_ZSt13__adjust_heapIPN12_GLOBAL__N_19ChainElemElS1_N9__gnu_cxx5__ops15_Iter_comp_iterIZNS0_18sortChainInBBOrderERN4llvm11SmallVectorIS1_Lj1EEEE3$_0EEEvT_T0_SD_T1_T2_"(ptr nocapture noundef %0, i64 noundef %1, i64 noundef %2, ptr nocapture noundef %3) unnamed_addr #0 {
  %5 = add nsw i64 %2, -1
  %6 = sdiv i64 %5, 2
  %7 = icmp slt i64 %1, %6
  br i1 %7, label %.lr.ph, label %._crit_edge

.lr.ph:                                           ; preds = %4, %_ZN12_GLOBAL__N_19ChainElemaSEOS0_.exit
  %.033 = phi i64 [ %spec.select, %_ZN12_GLOBAL__N_19ChainElemaSEOS0_.exit ], [ %1, %4 ]
  %8 = shl i64 %.033, 1
  %9 = add i64 %8, 2
  %10 = getelementptr inbounds %"struct.(anonymous namespace)::ChainElem", ptr %0, i64 %9
  %11 = or disjoint i64 %8, 1
  %12 = getelementptr inbounds %"struct.(anonymous namespace)::ChainElem", ptr %0, i64 %11
  %.val29 = load ptr, ptr %10, align 8
  %.val30 = load ptr, ptr %12, align 8
  %13 = tail call noundef zeroext i1 @_ZNK4llvm11Instruction11comesBeforeEPKS0_(ptr noundef nonnull align 8 dereferenceable(72) %.val29, ptr noundef %.val30) #17
  %spec.select = select i1 %13, i64 %11, i64 %9
  %14 = getelementptr inbounds %"struct.(anonymous namespace)::ChainElem", ptr %0, i64 %spec.select
  %15 = getelementptr inbounds %"struct.(anonymous namespace)::ChainElem", ptr %0, i64 %.033
  %16 = load ptr, ptr %14, align 8
  store ptr %16, ptr %15, align 8
  %17 = getelementptr inbounds nuw i8, ptr %15, i64 8
  %18 = getelementptr inbounds i8, ptr %15, i64 16
  %19 = load i32, ptr %18, align 8
  %20 = icmp ult i32 %19, 65
  br i1 %20, label %_ZN12_GLOBAL__N_19ChainElemaSEOS0_.exit, label %21

21:                                               ; preds = %.lr.ph
  %22 = load ptr, ptr %17, align 8
  %23 = icmp eq ptr %22, null
  br i1 %23, label %_ZN12_GLOBAL__N_19ChainElemaSEOS0_.exit, label %24

24:                                               ; preds = %21
  tail call void @_ZdaPv(ptr noundef nonnull %22) #21
  br label %_ZN12_GLOBAL__N_19ChainElemaSEOS0_.exit

_ZN12_GLOBAL__N_19ChainElemaSEOS0_.exit:          ; preds = %.lr.ph, %21, %24
  %25 = getelementptr inbounds nuw i8, ptr %14, i64 8
  %26 = load i64, ptr %25, align 8
  store i64 %26, ptr %17, align 8
  %27 = getelementptr inbounds i8, ptr %14, i64 16
  %28 = load i32, ptr %27, align 8
  store i32 %28, ptr %18, align 8
  store i32 0, ptr %27, align 8
  %29 = icmp slt i64 %spec.select, %6
  br i1 %29, label %.lr.ph, label %._crit_edge, !llvm.loop !216

._crit_edge:                                      ; preds = %_ZN12_GLOBAL__N_19ChainElemaSEOS0_.exit, %4
  %.0.lcssa = phi i64 [ %1, %4 ], [ %spec.select, %_ZN12_GLOBAL__N_19ChainElemaSEOS0_.exit ]
  %30 = and i64 %2, 1
  %31 = icmp eq i64 %30, 0
  br i1 %31, label %32, label %54

32:                                               ; preds = %._crit_edge
  %33 = add nsw i64 %2, -2
  %34 = ashr exact i64 %33, 1
  %35 = icmp eq i64 %.0.lcssa, %34
  br i1 %35, label %36, label %54

36:                                               ; preds = %32
  %37 = shl nsw i64 %.0.lcssa, 1
  %38 = or disjoint i64 %37, 1
  %39 = getelementptr inbounds %"struct.(anonymous namespace)::ChainElem", ptr %0, i64 %38
  %40 = getelementptr inbounds %"struct.(anonymous namespace)::ChainElem", ptr %0, i64 %.0.lcssa
  %41 = load ptr, ptr %39, align 8
  store ptr %41, ptr %40, align 8
  %42 = getelementptr inbounds nuw i8, ptr %40, i64 8
  %43 = getelementptr inbounds i8, ptr %40, i64 16
  %44 = load i32, ptr %43, align 8
  %45 = icmp ult i32 %44, 65
  br i1 %45, label %_ZN12_GLOBAL__N_19ChainElemaSEOS0_.exit31, label %46

46:                                               ; preds = %36
  %47 = load ptr, ptr %42, align 8
  %48 = icmp eq ptr %47, null
  br i1 %48, label %_ZN12_GLOBAL__N_19ChainElemaSEOS0_.exit31, label %49

49:                                               ; preds = %46
  tail call void @_ZdaPv(ptr noundef nonnull %47) #21
  br label %_ZN12_GLOBAL__N_19ChainElemaSEOS0_.exit31

_ZN12_GLOBAL__N_19ChainElemaSEOS0_.exit31:        ; preds = %36, %46, %49
  %50 = getelementptr inbounds nuw i8, ptr %39, i64 8
  %51 = load i64, ptr %50, align 8
  store i64 %51, ptr %42, align 8
  %52 = getelementptr inbounds i8, ptr %39, i64 16
  %53 = load i32, ptr %52, align 8
  store i32 %53, ptr %43, align 8
  store i32 0, ptr %52, align 8
  br label %54

54:                                               ; preds = %_ZN12_GLOBAL__N_19ChainElemaSEOS0_.exit31, %32, %._crit_edge
  %.127 = phi i64 [ %38, %_ZN12_GLOBAL__N_19ChainElemaSEOS0_.exit31 ], [ %.0.lcssa, %32 ], [ %.0.lcssa, %._crit_edge ]
  %55 = load ptr, ptr %3, align 8
  %56 = getelementptr inbounds nuw i8, ptr %3, i64 8
  %57 = getelementptr inbounds i8, ptr %3, i64 16
  %58 = load i32, ptr %57, align 8
  %59 = load i64, ptr %56, align 8
  store i32 0, ptr %57, align 8
  %60 = icmp sgt i64 %.127, %1
  br i1 %60, label %.lr.ph.i, label %.critedge.i

.lr.ph.i:                                         ; preds = %54, %_ZN12_GLOBAL__N_19ChainElemaSEOS0_.exit.i
  %.0133.i = phi i64 [ %.04.i, %_ZN12_GLOBAL__N_19ChainElemaSEOS0_.exit.i ], [ %.127, %54 ]
  %.04.in.i = add nsw i64 %.0133.i, -1
  %.04.i = sdiv i64 %.04.in.i, 2
  %61 = getelementptr inbounds %"struct.(anonymous namespace)::ChainElem", ptr %0, i64 %.04.i
  %.val.i = load ptr, ptr %61, align 8
  %62 = tail call noundef zeroext i1 @_ZNK4llvm11Instruction11comesBeforeEPKS0_(ptr noundef nonnull align 8 dereferenceable(72) %.val.i, ptr noundef %55) #17
  br i1 %62, label %63, label %.critedge.i

63:                                               ; preds = %.lr.ph.i
  %64 = getelementptr inbounds %"struct.(anonymous namespace)::ChainElem", ptr %0, i64 %.0133.i
  %65 = load ptr, ptr %61, align 8
  store ptr %65, ptr %64, align 8
  %66 = getelementptr inbounds nuw i8, ptr %64, i64 8
  %67 = getelementptr inbounds i8, ptr %64, i64 16
  %68 = load i32, ptr %67, align 8
  %69 = icmp ult i32 %68, 65
  br i1 %69, label %_ZN12_GLOBAL__N_19ChainElemaSEOS0_.exit.i, label %70

70:                                               ; preds = %63
  %71 = load ptr, ptr %66, align 8
  %72 = icmp eq ptr %71, null
  br i1 %72, label %_ZN12_GLOBAL__N_19ChainElemaSEOS0_.exit.i, label %73

73:                                               ; preds = %70
  tail call void @_ZdaPv(ptr noundef nonnull %71) #21
  br label %_ZN12_GLOBAL__N_19ChainElemaSEOS0_.exit.i

_ZN12_GLOBAL__N_19ChainElemaSEOS0_.exit.i:        ; preds = %73, %70, %63
  %74 = getelementptr inbounds nuw i8, ptr %61, i64 8
  %75 = load i64, ptr %74, align 8
  store i64 %75, ptr %66, align 8
  %76 = getelementptr inbounds i8, ptr %61, i64 16
  %77 = load i32, ptr %76, align 8
  store i32 %77, ptr %67, align 8
  store i32 0, ptr %76, align 8
  %78 = icmp sgt i64 %.04.i, %1
  br i1 %78, label %.lr.ph.i, label %.critedge.i, !llvm.loop !217

.critedge.i:                                      ; preds = %_ZN12_GLOBAL__N_19ChainElemaSEOS0_.exit.i, %.lr.ph.i, %54
  %.013.lcssa.i = phi i64 [ %.127, %54 ], [ %.0133.i, %.lr.ph.i ], [ %.04.i, %_ZN12_GLOBAL__N_19ChainElemaSEOS0_.exit.i ]
  %79 = getelementptr inbounds %"struct.(anonymous namespace)::ChainElem", ptr %0, i64 %.013.lcssa.i
  store ptr %55, ptr %79, align 8
  %80 = getelementptr inbounds nuw i8, ptr %79, i64 8
  %81 = getelementptr inbounds i8, ptr %79, i64 16
  %82 = load i32, ptr %81, align 8
  %83 = icmp ult i32 %82, 65
  br i1 %83, label %_ZN12_GLOBAL__N_19ChainElemD2Ev.exit, label %84

84:                                               ; preds = %.critedge.i
  %85 = load ptr, ptr %80, align 8
  %86 = icmp eq ptr %85, null
  br i1 %86, label %_ZN12_GLOBAL__N_19ChainElemD2Ev.exit, label %87

87:                                               ; preds = %84
  tail call void @_ZdaPv(ptr noundef nonnull %85) #21
  br label %_ZN12_GLOBAL__N_19ChainElemD2Ev.exit

_ZN12_GLOBAL__N_19ChainElemD2Ev.exit:             ; preds = %87, %84, %.critedge.i
  store i64 %59, ptr %80, align 8
  store i32 %58, ptr %81, align 8
  ret void
}